target datalayout = "e-m:e-p270:32:32-p271:32:32-p272:64:64-i64:64-i128:128-f80:128-n8:16:32:64-S128"
target triple = "x86_64-pc-linux-gnu"

%struct.If_Man_t_ = type { ptr, ptr, ptr, ptr, ptr, ptr, ptr, ptr, [5 x i32], i32, float, float, float, float, i32, float, i32, i32, [4 x ptr], ptr, i32, i32, i32, ptr, [3 x [32 x i32]], i32, i32, i32, ptr, ptr, ptr, ptr, ptr, ptr, ptr, i32, i32, i32, [16 x i32], i32, i32, i32, i32, ptr, ptr, ptr, ptr, ptr, i32, i32, [32 x i32], [32 x i32], i32, i32, i32, i32, ptr, [16 x ptr], [16 x ptr], [16 x ptr], [16 x ptr], [16 x ptr], [16 x ptr], [16 x ptr], ptr, ptr, ptr, ptr, [32 x i8], i32, i32, i32, [6 x i64], [2 x i32], [2 x i32], ptr, [15 x i32], ptr, ptr, ptr, [16 x i32], ptr, ptr, ptr, ptr, [2 x i32], [2 x i32], [2 x ptr], ptr }
%struct.If_Grp_t_ = type { i8, i8, [16 x i8] }
%struct.If_Par_t_ = type { i32, i32, i32, i32, i32, i32, float, float, i32, i32, i32, i32, i32, i32, i32, i32, i32, i32, i32, i32, i32, i32, i32, i32, i32, i32, i32, i32, i32, i32, i32, i32, i32, i32, i32, i32, i32, i32, i32, i32, i32, i32, i32, i32, i32, i32, i32, i32, i32, i32, ptr, i32, float, i32, i32, i32, i32, i32, i32, i32, i32, i32, i32, i32, i32, i32, i32, float, float, float, ptr, ptr, ptr, ptr, ptr, ptr, ptr, ptr, ptr }

@Truth6 = internal global [6 x i64] [i64 -6148914691236517206, i64 -3689348814741910324, i64 -1085102592571150096, i64 -71777214294589696, i64 -281470681808896, i64 -4294967296], align 16

; Function Attrs: nounwind uwtable
define i32 @If_CluCheckDecOutU(i64 noundef %0, i32 noundef %1) #0 {
  %3 = alloca i32, align 4
  %4 = alloca i64, align 8
  %5 = alloca i32, align 4
  %6 = alloca i32, align 4
  %7 = alloca i32, align 4
  store i64 %0, ptr %4, align 8, !tbaa !79
  store i32 %1, ptr %5, align 4, !tbaa !3
  call void @llvm.lifetime.start.p0(i64 4, ptr %6) #11
  store i32 0, ptr %6, align 4, !tbaa !3
  br label %8

8:                                                ; preds = %33, %2
  %9 = load i32, ptr %6, align 4, !tbaa !3
  %10 = load i32, ptr %5, align 4, !tbaa !3
  %11 = icmp slt i32 %9, %10
  br i1 %11, label %12, label %36

12:                                               ; preds = %8
  %13 = load i64, ptr %4, align 8, !tbaa !79
  %14 = load i32, ptr %6, align 4, !tbaa !3
  %15 = sext i32 %14 to i64
  %16 = getelementptr inbounds [6 x i64], ptr @Truth6, i64 0, i64 %15
  %17 = load i64, ptr %16, align 8, !tbaa !79
  %18 = xor i64 %17, -1
  %19 = and i64 %13, %18
  %20 = icmp eq i64 %19, 0
  br i1 %20, label %31, label %21

21:                                               ; preds = %12
  %22 = load i64, ptr %4, align 8, !tbaa !79
  %23 = xor i64 %22, -1
  %24 = load i32, ptr %6, align 4, !tbaa !3
  %25 = sext i32 %24 to i64
  %26 = getelementptr inbounds [6 x i64], ptr @Truth6, i64 0, i64 %25
  %27 = load i64, ptr %26, align 8, !tbaa !79
  %28 = xor i64 %27, -1
  %29 = and i64 %23, %28
  %30 = icmp eq i64 %29, 0
  br i1 %30, label %31, label %32

31:                                               ; preds = %21, %12
  store i32 1, ptr %3, align 4
  store i32 1, ptr %7, align 4
  br label %37

32:                                               ; preds = %21
  br label %33

33:                                               ; preds = %32
  %34 = load i32, ptr %6, align 4, !tbaa !3
  %35 = add nsw i32 %34, 1
  store i32 %35, ptr %6, align 4, !tbaa !3
  br label %8, !llvm.loop !185

36:                                               ; preds = %8
  store i32 0, ptr %3, align 4
  store i32 1, ptr %7, align 4
  br label %37

37:                                               ; preds = %36, %31
  call void @llvm.lifetime.end.p0(i64 4, ptr %6) #11
  %38 = load i32, ptr %3, align 4
  ret i32 %38
}

; Function Attrs: nounwind uwtable
define i32 @If_CluCheckDecOut(i64 noundef %0, i32 noundef %1) #0 {
  %3 = alloca i32, align 4
  %4 = alloca i64, align 8
  %5 = alloca i32, align 4
  %6 = alloca i32, align 4
  %7 = alloca i32, align 4
  store i64 %0, ptr %4, align 8, !tbaa !79
  store i32 %1, ptr %5, align 4, !tbaa !3
  call void @llvm.lifetime.start.p0(i64 4, ptr %6) #11
  store i32 0, ptr %6, align 4, !tbaa !3
  br label %8

8:                                                ; preds = %50, %2
  %9 = load i32, ptr %6, align 4, !tbaa !3
  %10 = load i32, ptr %5, align 4, !tbaa !3
  %11 = icmp slt i32 %9, %10
  br i1 %11, label %12, label %53

12:                                               ; preds = %8
  %13 = load i64, ptr %4, align 8, !tbaa !79
  %14 = load i32, ptr %6, align 4, !tbaa !3
  %15 = sext i32 %14 to i64
  %16 = getelementptr inbounds [6 x i64], ptr @Truth6, i64 0, i64 %15
  %17 = load i64, ptr %16, align 8, !tbaa !79
  %18 = and i64 %13, %17
  %19 = icmp eq i64 %18, 0
  br i1 %19, label %48, label %20

20:                                               ; preds = %12
  %21 = load i64, ptr %4, align 8, !tbaa !79
  %22 = xor i64 %21, -1
  %23 = load i32, ptr %6, align 4, !tbaa !3
  %24 = sext i32 %23 to i64
  %25 = getelementptr inbounds [6 x i64], ptr @Truth6, i64 0, i64 %24
  %26 = load i64, ptr %25, align 8, !tbaa !79
  %27 = and i64 %22, %26
  %28 = icmp eq i64 %27, 0
  br i1 %28, label %48, label %29

29:                                               ; preds = %20
  %30 = load i64, ptr %4, align 8, !tbaa !79
  %31 = load i32, ptr %6, align 4, !tbaa !3
  %32 = sext i32 %31 to i64
  %33 = getelementptr inbounds [6 x i64], ptr @Truth6, i64 0, i64 %32
  %34 = load i64, ptr %33, align 8, !tbaa !79
  %35 = xor i64 %34, -1
  %36 = and i64 %30, %35
  %37 = icmp eq i64 %36, 0
  br i1 %37, label %48, label %38

38:                                               ; preds = %29
  %39 = load i64, ptr %4, align 8, !tbaa !79
  %40 = xor i64 %39, -1
  %41 = load i32, ptr %6, align 4, !tbaa !3
  %42 = sext i32 %41 to i64
  %43 = getelementptr inbounds [6 x i64], ptr @Truth6, i64 0, i64 %42
  %44 = load i64, ptr %43, align 8, !tbaa !79
  %45 = xor i64 %44, -1
  %46 = and i64 %40, %45
  %47 = icmp eq i64 %46, 0
  br i1 %47, label %48, label %49

48:                                               ; preds = %38, %29, %20, %12
  store i32 1, ptr %3, align 4
  store i32 1, ptr %7, align 4
  br label %54

49:                                               ; preds = %38
  br label %50

50:                                               ; preds = %49
  %51 = load i32, ptr %6, align 4, !tbaa !3
  %52 = add nsw i32 %51, 1
  store i32 %52, ptr %6, align 4, !tbaa !3
  br label %8, !llvm.loop !184

53:                                               ; preds = %8
  store i32 0, ptr %3, align 4
  store i32 1, ptr %7, align 4
  br label %54

54:                                               ; preds = %53, %48
  call void @llvm.lifetime.end.p0(i64 4, ptr %6) #11
  %55 = load i32, ptr %3, align 4
  ret i32 %55
}

; Function Attrs: inlinehint nounwind uwtable
define internal i64 @If_CluAdjust(i64 noundef %0, i32 noundef %1) #3 {
  %3 = alloca i64, align 8
  %4 = alloca i64, align 8
  %5 = alloca i32, align 4
  store i64 %0, ptr %4, align 8, !tbaa !79
  store i32 %1, ptr %5, align 4, !tbaa !3
  %6 = load i32, ptr %5, align 4, !tbaa !3
  %7 = icmp eq i32 %6, 6
  br i1 %7, label %8, label %10

8:                                                ; preds = %2
  %9 = load i64, ptr %4, align 8, !tbaa !79
  store i64 %9, ptr %3, align 8
  br label %91

10:                                               ; preds = %2
  %11 = load i32, ptr %5, align 4, !tbaa !3
  %12 = shl i32 1, %11
  %13 = zext i32 %12 to i64
  %14 = shl i64 1, %13
  %15 = sub i64 %14, 1
  %16 = load i64, ptr %4, align 8, !tbaa !79
  %17 = and i64 %16, %15
  store i64 %17, ptr %4, align 8, !tbaa !79
  %18 = load i32, ptr %5, align 4, !tbaa !3
  %19 = icmp eq i32 %18, 0
  br i1 %19, label %20, label %29

20:                                               ; preds = %10
  %21 = load i64, ptr %4, align 8, !tbaa !79
  %22 = load i32, ptr %5, align 4, !tbaa !3
  %23 = add nsw i32 %22, 1
  store i32 %23, ptr %5, align 4, !tbaa !3
  %24 = shl i32 1, %22
  %25 = zext i32 %24 to i64
  %26 = shl i64 %21, %25
  %27 = load i64, ptr %4, align 8, !tbaa !79
  %28 = or i64 %27, %26
  store i64 %28, ptr %4, align 8, !tbaa !79
  br label %29

29:                                               ; preds = %20, %10
  %30 = load i32, ptr %5, align 4, !tbaa !3
  %31 = icmp eq i32 %30, 1
  br i1 %31, label %32, label %41

32:                                               ; preds = %29
  %33 = load i64, ptr %4, align 8, !tbaa !79
  %34 = load i32, ptr %5, align 4, !tbaa !3
  %35 = add nsw i32 %34, 1
  store i32 %35, ptr %5, align 4, !tbaa !3
  %36 = shl i32 1, %34
  %37 = zext i32 %36 to i64
  %38 = shl i64 %33, %37
  %39 = load i64, ptr %4, align 8, !tbaa !79
  %40 = or i64 %39, %38
  store i64 %40, ptr %4, align 8, !tbaa !79
  br label %41

41:                                               ; preds = %32, %29
  %42 = load i32, ptr %5, align 4, !tbaa !3
  %43 = icmp eq i32 %42, 2
  br i1 %43, label %44, label %53

44:                                               ; preds = %41
  %45 = load i64, ptr %4, align 8, !tbaa !79
  %46 = load i32, ptr %5, align 4, !tbaa !3
  %47 = add nsw i32 %46, 1
  store i32 %47, ptr %5, align 4, !tbaa !3
  %48 = shl i32 1, %46
  %49 = zext i32 %48 to i64
  %50 = shl i64 %45, %49
  %51 = load i64, ptr %4, align 8, !tbaa !79
  %52 = or i64 %51, %50
  store i64 %52, ptr %4, align 8, !tbaa !79
  br label %53

53:                                               ; preds = %44, %41
  %54 = load i32, ptr %5, align 4, !tbaa !3
  %55 = icmp eq i32 %54, 3
  br i1 %55, label %56, label %65

56:                                               ; preds = %53
  %57 = load i64, ptr %4, align 8, !tbaa !79
  %58 = load i32, ptr %5, align 4, !tbaa !3
  %59 = add nsw i32 %58, 1
  store i32 %59, ptr %5, align 4, !tbaa !3
  %60 = shl i32 1, %58
  %61 = zext i32 %60 to i64
  %62 = shl i64 %57, %61
  %63 = load i64, ptr %4, align 8, !tbaa !79
  %64 = or i64 %63, %62
  store i64 %64, ptr %4, align 8, !tbaa !79
  br label %65

65:                                               ; preds = %56, %53
  %66 = load i32, ptr %5, align 4, !tbaa !3
  %67 = icmp eq i32 %66, 4
  br i1 %67, label %68, label %77

68:                                               ; preds = %65
  %69 = load i64, ptr %4, align 8, !tbaa !79
  %70 = load i32, ptr %5, align 4, !tbaa !3
  %71 = add nsw i32 %70, 1
  store i32 %71, ptr %5, align 4, !tbaa !3
  %72 = shl i32 1, %70
  %73 = zext i32 %72 to i64
  %74 = shl i64 %69, %73
  %75 = load i64, ptr %4, align 8, !tbaa !79
  %76 = or i64 %75, %74
  store i64 %76, ptr %4, align 8, !tbaa !79
  br label %77

77:                                               ; preds = %68, %65
  %78 = load i32, ptr %5, align 4, !tbaa !3
  %79 = icmp eq i32 %78, 5
  br i1 %79, label %80, label %89

80:                                               ; preds = %77
  %81 = load i64, ptr %4, align 8, !tbaa !79
  %82 = load i32, ptr %5, align 4, !tbaa !3
  %83 = add nsw i32 %82, 1
  store i32 %83, ptr %5, align 4, !tbaa !3
  %84 = shl i32 1, %82
  %85 = zext i32 %84 to i64
  %86 = shl i64 %81, %85
  %87 = load i64, ptr %4, align 8, !tbaa !79
  %88 = or i64 %87, %86
  store i64 %88, ptr %4, align 8, !tbaa !79
  br label %89

89:                                               ; preds = %80, %77
  %90 = load i64, ptr %4, align 8, !tbaa !79
  store i64 %90, ptr %3, align 8
  br label %91

91:                                               ; preds = %89, %8
  %92 = load i64, ptr %3, align 8
  ret i64 %92
}

; Function Attrs: nounwind uwtable
define i32 @If_CutPerformCheck45(ptr noundef %0, ptr noundef %1, i32 noundef %2, i32 noundef %3, ptr noundef %4) #0 {
  %6 = alloca i32, align 4
  %7 = alloca ptr, align 8
  %8 = alloca ptr, align 8
  %9 = alloca i32, align 4
  %10 = alloca i32, align 4
  %11 = alloca ptr, align 8
  %12 = alloca %struct.If_Grp_t_, align 1
  %13 = alloca %struct.If_Grp_t_, align 1
  %14 = alloca i64, align 8
  %15 = alloca i64, align 8
  %16 = alloca %struct.If_Grp_t_, align 1
  %17 = alloca i32, align 4
  store ptr %0, ptr %7, align 8, !tbaa !10
  store ptr %1, ptr %8, align 8, !tbaa !21
  store i32 %2, ptr %9, align 4, !tbaa !3
  store i32 %3, ptr %10, align 4, !tbaa !3
  store ptr %4, ptr %11, align 8, !tbaa !23
  call void @llvm.lifetime.start.p0(i64 18, ptr %12) #11
  call void @llvm.lifetime.start.p0(i64 18, ptr %13) #11
  call void @llvm.lifetime.start.p0(i64 8, ptr %14) #11
  call void @llvm.lifetime.start.p0(i64 8, ptr %15) #11
  call void @llvm.lifetime.start.p0(i64 18, ptr %16) #11
  %18 = load ptr, ptr %7, align 8, !tbaa !10
  %19 = load ptr, ptr %8, align 8, !tbaa !21
  %20 = load i32, ptr %10, align 4, !tbaa !3
  call void @If_CluCheck(ptr dead_on_unwind writable sret(%struct.If_Grp_t_) align 1 %16, ptr noundef %18, ptr noundef %19, i32 noundef %20, i32 noundef 0, i32 noundef 0, i32 noundef 5, i32 noundef 4, ptr noundef %13, ptr noundef %14, ptr noundef %15, ptr noundef null, i32 noundef 0)
  call void @llvm.memcpy.p0.p0.i64(ptr align 1 %12, ptr align 1 %16, i64 18, i1 false), !tbaa.struct !48
  call void @llvm.lifetime.end.p0(i64 18, ptr %16) #11
  %21 = getelementptr inbounds nuw %struct.If_Grp_t_, ptr %12, i32 0, i32 0
  %22 = load i8, ptr %21, align 1, !tbaa !49
  %23 = sext i8 %22 to i32
  %24 = icmp eq i32 %23, 0
  br i1 %24, label %25, label %26

25:                                               ; preds = %5
  store i32 0, ptr %6, align 4
  store i32 1, ptr %17, align 4
  br label %65

26:                                               ; preds = %5
  %27 = load i64, ptr %14, align 8, !tbaa !79
  %28 = getelementptr inbounds nuw %struct.If_Grp_t_, ptr %13, i32 0, i32 0
  %29 = load i8, ptr %28, align 1, !tbaa !49
  %30 = sext i8 %29 to i32
  %31 = call i64 @If_CluAdjust(i64 noundef %27, i32 noundef %30)
  store i64 %31, ptr %14, align 8, !tbaa !79
  %32 = load i64, ptr %15, align 8, !tbaa !79
  %33 = getelementptr inbounds nuw %struct.If_Grp_t_, ptr %12, i32 0, i32 0
  %34 = load i8, ptr %33, align 1, !tbaa !49
  %35 = sext i8 %34 to i32
  %36 = call i64 @If_CluAdjust(i64 noundef %32, i32 noundef %35)
  store i64 %36, ptr %15, align 8, !tbaa !79
  %37 = getelementptr inbounds nuw %struct.If_Grp_t_, ptr %12, i32 0, i32 0
  %38 = load i8, ptr %37, align 1, !tbaa !49
  %39 = sext i8 %38 to i32
  %40 = icmp slt i32 %39, 5
  br i1 %40, label %63, label %41

41:                                               ; preds = %26
  %42 = load ptr, ptr %7, align 8, !tbaa !10
  %43 = getelementptr inbounds nuw %struct.If_Man_t_, ptr %42, i32 0, i32 1
  %44 = load ptr, ptr %43, align 8, !tbaa !25
  %45 = getelementptr inbounds nuw %struct.If_Par_t_, ptr %44, i32 0, i32 34
  %46 = load i32, ptr %45, align 8, !tbaa !186
  %47 = icmp ne i32 %46, 0
  br i1 %47, label %48, label %52

48:                                               ; preds = %41
  %49 = load i64, ptr %15, align 8, !tbaa !79
  %50 = call i32 @If_CluCheckDecOut(i64 noundef %49, i32 noundef 5)
  %51 = icmp ne i32 %50, 0
  br i1 %51, label %63, label %52

52:                                               ; preds = %48, %41
  %53 = load ptr, ptr %7, align 8, !tbaa !10
  %54 = getelementptr inbounds nuw %struct.If_Man_t_, ptr %53, i32 0, i32 1
  %55 = load ptr, ptr %54, align 8, !tbaa !25
  %56 = getelementptr inbounds nuw %struct.If_Par_t_, ptr %55, i32 0, i32 35
  %57 = load i32, ptr %56, align 4, !tbaa !187
  %58 = icmp ne i32 %57, 0
  br i1 %58, label %59, label %64

59:                                               ; preds = %52
  %60 = load i64, ptr %15, align 8, !tbaa !79
  %61 = call i32 @If_CluCheckDecOutU(i64 noundef %60, i32 noundef 5)
  %62 = icmp ne i32 %61, 0
  br i1 %62, label %63, label %64

63:                                               ; preds = %59, %48, %26
  store i32 1, ptr %6, align 4
  store i32 1, ptr %17, align 4
  br label %65

64:                                               ; preds = %59, %52
  store i32 0, ptr %6, align 4
  store i32 1, ptr %17, align 4
  br label %65

65:                                               ; preds = %64, %63, %25
  call void @llvm.lifetime.end.p0(i64 8, ptr %15) #11
  call void @llvm.lifetime.end.p0(i64 8, ptr %14) #11
  call void @llvm.lifetime.end.p0(i64 18, ptr %13) #11
  call void @llvm.lifetime.end.p0(i64 18, ptr %12) #11
  %66 = load i32, ptr %6, align 4
  ret i32 %66
}