; Function Attrs: nounwind uwtable
define range(i32 0, 2) i32 @If_CutPerformCheck45(ptr noundef %0, ptr noundef readonly captures(none) %1, i32 noundef %2, i32 noundef %3, ptr noundef readnone captures(none) %4) local_unnamed_addr #2 {
  %6 = alloca %struct.If_Grp_t_, align 1
  %7 = alloca i64, align 8
  %8 = alloca i64, align 8
  %9 = alloca %struct.If_Grp_t_, align 1
  call void @llvm.lifetime.start.p0(i64 18, ptr nonnull %6) #22
  call void @llvm.lifetime.start.p0(i64 8, ptr nonnull %7) #22
  call void @llvm.lifetime.start.p0(i64 8, ptr nonnull %8) #22
  call void @llvm.lifetime.start.p0(i64 18, ptr nonnull %9) #22
  call void @If_CluCheck(ptr dead_on_unwind nonnull writable sret(%struct.If_Grp_t_) align 1 %9, ptr noundef %0, ptr noundef %1, i32 noundef %3, i32 noundef 0, i32 noundef 0, i32 noundef 5, i32 noundef 4, ptr noundef nonnull %6, ptr noundef nonnull %7, ptr noundef nonnull %8, ptr noundef null, i32 noundef 0)
  %.sroa.0.0.copyload = load i8, ptr %9, align 1, !tbaa !59
  call void @llvm.lifetime.end.p0(i64 18, ptr nonnull %9) #22
  %10 = icmp eq i8 %.sroa.0.0.copyload, 0
  br i1 %10, label %If_CluCheckDecOutU.exit, label %If_CluAdjust.exit

If_CluAdjust.exit:                                ; preds = %5
  %11 = load i64, ptr %8, align 8, !tbaa !16
  %12 = icmp eq i8 %.sroa.0.0.copyload, 6
  br i1 %12, label %If_CluAdjust.exit22.thread, label %If_CluAdjust.exit22

If_CluAdjust.exit22:                              ; preds = %If_CluAdjust.exit
  %13 = sext i8 %.sroa.0.0.copyload to i32
  %14 = shl nuw i32 1, %13
  %15 = zext nneg i32 %14 to i64
  %notmask.i11 = shl nsw i64 -1, %15
  %16 = xor i64 %notmask.i11, -1
  %17 = and i64 %11, %16
  %18 = icmp eq i8 %.sroa.0.0.copyload, 1
  %19 = shl i64 %17, 2
  %20 = select i1 %18, i64 %19, i64 0
  %.131.i13 = or i64 %20, %17
  %.1.i14 = call i32 @llvm.umax.i32(i32 range(i32 -2147483646, -2147483648) %13, i32 2)
  %21 = icmp ult i8 %.sroa.0.0.copyload, 3
  %22 = shl i64 %.131.i13, 4
  %23 = select i1 %21, i64 %22, i64 0
  %.232.i15 = or i64 %23, %.131.i13
  %.2.i16 = select i1 %21, i32 3, i32 %.1.i14
  %24 = icmp eq i32 %.2.i16, 3
  %25 = shl i64 %.232.i15, 8
  %26 = select i1 %24, i64 %25, i64 0
  %.333.i17 = or i64 %26, %.232.i15
  %.3.i18 = select i1 %24, i32 4, i32 %.2.i16
  %27 = icmp eq i32 %.3.i18, 4
  %28 = shl i64 %.333.i17, 16
  %29 = select i1 %27, i64 %28, i64 0
  %.434.i19 = or i64 %29, %.333.i17
  %30 = and i32 %.3.i18, -2
  %31 = icmp eq i32 %30, 4
  %32 = shl i64 %.434.i19, 32
  %33 = select i1 %31, i64 %32, i64 0
  %.5.i20 = or i64 %33, %.434.i19
  %34 = icmp slt i8 %.sroa.0.0.copyload, 5
  br i1 %34, label %If_CluCheckDecOutU.exit, label %If_CluAdjust.exit22.thread

If_CluAdjust.exit22.thread:                       ; preds = %If_CluAdjust.exit, %If_CluAdjust.exit22
  %.035.i2135 = phi i64 [ %.5.i20, %If_CluAdjust.exit22 ], [ %11, %If_CluAdjust.exit ]
  %35 = getelementptr inbounds nuw i8, ptr %0, i64 8
  %36 = load ptr, ptr %35, align 8, !tbaa !24
  %37 = getelementptr inbounds nuw i8, ptr %36, i64 136
  %38 = load i32, ptr %37, align 8, !tbaa !190
  %.not = icmp eq i32 %38, 0
  br i1 %.not, label %If_CluCheckDecOut.exit, label %39

39:                                               ; preds = %If_CluAdjust.exit22.thread
  %40 = xor i64 %.035.i2135, -1
  br label %.lr.ph.i

41:                                               ; preds = %48
  %indvars.iv.next.i = add nuw nsw i64 %indvars.iv.i, 1
  %exitcond.not.i = icmp eq i64 %indvars.iv.next.i, 5
  br i1 %exitcond.not.i, label %If_CluCheckDecOut.exit, label %.lr.ph.i, !llvm.loop !188

.lr.ph.i:                                         ; preds = %41, %39
  %indvars.iv.i = phi i64 [ 0, %39 ], [ %indvars.iv.next.i, %41 ]
  %42 = getelementptr inbounds nuw [6 x i64], ptr @s_Truths6, i64 0, i64 %indvars.iv.i
  %43 = load i64, ptr %42, align 8, !tbaa !16
  %44 = and i64 %43, %.035.i2135
  %45 = icmp eq i64 %44, 0
  %46 = and i64 %43, %40
  %47 = icmp eq i64 %46, 0
  %or.cond22.i = or i1 %45, %47
  br i1 %or.cond22.i, label %If_CluCheckDecOutU.exit, label %48

48:                                               ; preds = %.lr.ph.i
  %49 = xor i64 %43, -1
  %50 = and i64 %.035.i2135, %49
  %51 = icmp eq i64 %50, 0
  %52 = or i64 %43, %.035.i2135
  %53 = icmp eq i64 %52, -1
  %or.cond.i = or i1 %51, %53
  br i1 %or.cond.i, label %If_CluCheckDecOutU.exit, label %41

If_CluCheckDecOut.exit:                           ; preds = %41, %If_CluAdjust.exit22.thread
  %54 = getelementptr inbounds nuw i8, ptr %36, i64 140
  %55 = load i32, ptr %54, align 4, !tbaa !191
  %.not9 = icmp eq i32 %55, 0
  br i1 %.not9, label %If_CluCheckDecOutU.exit, label %.lr.ph.i23

56:                                               ; preds = %.lr.ph.i23
  %indvars.iv.next.i26 = add nuw nsw i64 %indvars.iv.i24, 1
  %exitcond.not.i27 = icmp eq i64 %indvars.iv.next.i26, 5
  br i1 %exitcond.not.i27, label %If_CluCheckDecOutU.exit, label %.lr.ph.i23, !llvm.loop !189

.lr.ph.i23:                                       ; preds = %If_CluCheckDecOut.exit, %56
  %indvars.iv.i24 = phi i64 [ %indvars.iv.next.i26, %56 ], [ 0, %If_CluCheckDecOut.exit ]
  %57 = getelementptr inbounds nuw [6 x i64], ptr @s_Truths6, i64 0, i64 %indvars.iv.i24
  %58 = load i64, ptr %57, align 8, !tbaa !16
  %59 = xor i64 %58, -1
  %60 = and i64 %.035.i2135, %59
  %61 = icmp eq i64 %60, 0
  %62 = or i64 %58, %.035.i2135
  %63 = icmp eq i64 %62, -1
  %or.cond.i25 = or i1 %61, %63
  br i1 %or.cond.i25, label %If_CluCheckDecOutU.exit, label %56

If_CluCheckDecOutU.exit:                          ; preds = %48, %.lr.ph.i, %56, %.lr.ph.i23, %If_CluCheckDecOut.exit, %If_CluAdjust.exit22, %5
  %.0 = phi i32 [ 0, %5 ], [ 1, %If_CluAdjust.exit22 ], [ 0, %If_CluCheckDecOut.exit ], [ 0, %56 ], [ 1, %.lr.ph.i23 ], [ 1, %.lr.ph.i ], [ 1, %48 ]
  call void @llvm.lifetime.end.p0(i64 8, ptr nonnull %8) #22
  call void @llvm.lifetime.end.p0(i64 8, ptr nonnull %7) #22
  call void @llvm.lifetime.end.p0(i64 18, ptr nonnull %6) #22
  ret i32 %.0
}